target datalayout = "e-m:e-p270:32:32-p271:32:32-p272:64:64-i64:64-i128:128-f80:128-n8:16:32:64-S128"
target triple = "x86_64-pc-linux-gnu"

%struct.gres_state = type { i32, i32, ptr, ptr, i32 }
%struct.gres_job_state = type { i32, ptr, i16, i16, i64, i64, i64, i64, i64, i16, i16, i64, i32, ptr, ptr, ptr, ptr, i32, i64, i32, ptr, ptr, ptr, ptr, ptr, ptr }

; Function Attrs: nounwind uwtable
define dso_local zeroext i1 @gres_sched_init(ptr noundef %0) #0 {
  %2 = alloca i1, align 1
  %3 = alloca ptr, align 8
  %4 = alloca ptr, align 8
  %5 = alloca ptr, align 8
  %6 = alloca ptr, align 8
  %7 = alloca i8, align 1
  %8 = alloca i32, align 4
  store ptr %0, ptr %3, align 8
  call void @llvm.lifetime.start.p0(i64 8, ptr %4) #3
  call void @llvm.lifetime.start.p0(i64 8, ptr %5) #3
  call void @llvm.lifetime.start.p0(i64 8, ptr %6) #3
  call void @llvm.lifetime.start.p0(i64 1, ptr %7) #3
  store i8 0, ptr %7, align 1
  %9 = load ptr, ptr %3, align 8
  %10 = icmp ne ptr %9, null
  br i1 %10, label %14, label %11

11:                                               ; preds = %1
  %12 = load i8, ptr %7, align 1, !range !11, !noundef !12
  %13 = trunc i8 %12 to i1
  store i1 %13, ptr %2, align 1
  store i32 1, ptr %8, align 4
  br label %37

14:                                               ; preds = %1
  %15 = load ptr, ptr %3, align 8
  %16 = call ptr @slurm_list_iterator_create(ptr noundef %15)
  store ptr %16, ptr %4, align 8
  br label %17

17:                                               ; preds = %30, %29, %14
  %18 = load ptr, ptr %4, align 8
  %19 = call ptr @slurm_list_next(ptr noundef %18)
  store ptr %19, ptr %5, align 8
  %20 = icmp ne ptr %19, null
  br i1 %20, label %21, label %33

21:                                               ; preds = %17
  %22 = load ptr, ptr %5, align 8
  %23 = getelementptr inbounds nuw %struct.gres_state, ptr %22, i32 0, i32 2
  %24 = load ptr, ptr %23, align 8
  store ptr %24, ptr %6, align 8
  %25 = load ptr, ptr %6, align 8
  %26 = getelementptr inbounds nuw %struct.gres_job_state, ptr %25, i32 0, i32 4
  %27 = load i64, ptr %26, align 8
  %28 = icmp ne i64 %27, 0
  br i1 %28, label %30, label %29

29:                                               ; preds = %21
  br label %17, !llvm.loop !13

30:                                               ; preds = %21
  %31 = load ptr, ptr %6, align 8
  %32 = getelementptr inbounds nuw %struct.gres_job_state, ptr %31, i32 0, i32 18
  store i64 0, ptr %32, align 8
  store i8 1, ptr %7, align 1
  br label %17, !llvm.loop !13

33:                                               ; preds = %17
  %34 = load ptr, ptr %4, align 8
  call void @slurm_list_iterator_destroy(ptr noundef %34)
  %35 = load i8, ptr %7, align 1, !range !11, !noundef !12
  %36 = trunc i8 %35 to i1
  store i1 %36, ptr %2, align 1
  store i32 1, ptr %8, align 4
  br label %37

37:                                               ; preds = %33, %11
  call void @llvm.lifetime.end.p0(i64 1, ptr %7) #3
  call void @llvm.lifetime.end.p0(i64 8, ptr %6) #3
  call void @llvm.lifetime.end.p0(i64 8, ptr %5) #3
  call void @llvm.lifetime.end.p0(i64 8, ptr %4) #3
  %38 = load i1, ptr %2, align 1
  ret i1 %38
}